#include <math.h>
#include <stdio.h>
#include <stdlib.h>
#include <string.h>

int main()
{
    int n,i,a,b;
    scanf("%d",&n);
    if(n==1)
    {
        printf("End");
    }
    else
    {
        do
        {
            i=n%2;
            if(i==1)
            {
                a=n*3+1;
                printf("%d*3+1=%d\n",n,a);
                n=a;
            }
            else
            {
                b=n/2;
                printf("%d/2=%d\n",n,b);
                n=b;
            }
        }
        while(n!=1);
        printf("End");
    }
    return 0;
}
